target datalayout = "e-m:e-p270:32:32-p271:32:32-p272:64:64-i64:64-i128:128-f80:128-n8:16:32:64-S128"
target triple = "x86_64-unknown-linux-gnu"

; Function Attrs: nounwind uwtable
define internal i32 @is_unsigned_integer(ptr noundef %cbs) #0 {
entry:
  %retval = alloca i32, align 4
  %cbs.addr = alloca ptr, align 8
  %byte = alloca i8, align 1
  store ptr %cbs, ptr %cbs.addr, align 8
  %0 = load ptr, ptr %cbs.addr, align 8
  %call = call i64 @CBS_len(ptr noundef %0)
  %cmp = icmp eq i64 %call, 0
  br i1 %cmp, label %if.then, label %if.end

if.then:                                          ; preds = %entry
  store i32 0, ptr %retval, align 4
  br label %return

if.end:                                           ; preds = %entry
  %1 = load ptr, ptr %cbs.addr, align 8
  %call1 = call ptr @CBS_data(ptr noundef %1)
  %arrayidx = getelementptr inbounds i8, ptr %call1, i64 0
  %2 = load i8, ptr %arrayidx, align 1
  store i8 %2, ptr %byte, align 1
  %3 = load i8, ptr %byte, align 1
  %conv = zext i8 %3 to i32
  %and = and i32 %conv, 128
  %tobool = icmp ne i32 %and, 0
  br i1 %tobool, label %if.then15, label %lor.lhs.false

lor.lhs.false:                                    ; preds = %if.end
  %4 = load i8, ptr %byte, align 1
  %conv2 = zext i8 %4 to i32
  %cmp3 = icmp eq i32 %conv2, 0
  br i1 %cmp3, label %land.lhs.true, label %if.end16

land.lhs.true:                                    ; preds = %lor.lhs.false
  %5 = load ptr, ptr %cbs.addr, align 8
  %call5 = call i64 @CBS_len(ptr noundef %5)
  %cmp6 = icmp ugt i64 %call5, 1
  br i1 %cmp6, label %land.lhs.true8, label %if.end16

land.lhs.true8:                                   ; preds = %land.lhs.true
  %6 = load ptr, ptr %cbs.addr, align 8
  %call9 = call ptr @CBS_data(ptr noundef %6)
  %arrayidx10 = getelementptr inbounds i8, ptr %call9, i64 1
  %7 = load i8, ptr %arrayidx10, align 1
  %conv11 = zext i8 %7 to i32
  %and12 = and i32 %conv11, 128
  %cmp13 = icmp eq i32 %and12, 0
  br i1 %cmp13, label %if.then15, label %if.end16

if.then15:                                        ; preds = %land.lhs.true8, %if.end
  store i32 0, ptr %retval, align 4
  br label %return

if.end16:                                         ; preds = %land.lhs.true8, %land.lhs.true, %lor.lhs.false
  store i32 1, ptr %retval, align 4
  br label %return

return:                                           ; preds = %if.end16, %if.then15, %if.then
  %8 = load i32, ptr %retval, align 4
  ret i32 %8
}