; Function Attrs: nounwind uwtable
define internal fastcc range(i32 0, 2) i32 @is_unsigned_integer(ptr noundef nonnull %cbs) unnamed_addr #0 {
entry:
  %call = tail call i64 @CBS_len(ptr noundef nonnull %cbs) #7
  %cmp = icmp eq i64 %call, 0
  br i1 %cmp, label %return, label %if.end

if.end:                                           ; preds = %entry
  %call1 = tail call ptr @CBS_data(ptr noundef nonnull %cbs) #7
  %0 = load i8, ptr %call1, align 1
  %tobool.not = icmp sgt i8 %0, -1
  br i1 %tobool.not, label %lor.lhs.false, label %return

lor.lhs.false:                                    ; preds = %if.end
  %cmp3 = icmp eq i8 %0, 0
  br i1 %cmp3, label %land.lhs.true, label %if.end16

land.lhs.true:                                    ; preds = %lor.lhs.false
  %call5 = tail call i64 @CBS_len(ptr noundef nonnull %cbs) #7
  %cmp6 = icmp ugt i64 %call5, 1
  br i1 %cmp6, label %land.lhs.true8, label %if.end16

land.lhs.true8:                                   ; preds = %land.lhs.true
  %call9 = tail call ptr @CBS_data(ptr noundef nonnull %cbs) #7
  %arrayidx10 = getelementptr inbounds nuw i8, ptr %call9, i64 1
  %1 = load i8, ptr %arrayidx10, align 1
  %cmp13 = icmp sgt i8 %1, -1
  br i1 %cmp13, label %return, label %if.end16

if.end16:                                         ; preds = %land.lhs.true8, %land.lhs.true, %lor.lhs.false
  br label %return

return:                                           ; preds = %if.end, %land.lhs.true8, %entry, %if.end16
  %retval.0 = phi i32 [ 1, %if.end16 ], [ 0, %entry ], [ 0, %land.lhs.true8 ], [ 0, %if.end ]
  ret i32 %retval.0
}